target datalayout = "e-m:e-p270:32:32-p271:32:32-p272:64:64-i64:64-i128:128-f80:128-n8:16:32:64-S128"
target triple = "x86_64-pc-linux-gnu"

%class.ValueMap = type <{ i32, [4 x i8], %class.GrowableArray, %class.ValueSet, i32, [4 x i8] }>
%class.GrowableArray = type { %class.GrowableArrayWithAllocator, %class.GrowableArrayMetadata }
%class.GrowableArrayWithAllocator = type { %class.GrowableArrayView }
%class.GrowableArrayView = type { %class.GrowableArrayBase, ptr }
%class.GrowableArrayBase = type { i32, i32 }
%class.GrowableArrayMetadata = type { i64 }
%class.ValueSet = type { %class.ResourceBitMap }
%class.ResourceBitMap = type { %class.GrowableBitMap }
%class.GrowableBitMap = type { %class.BitMap }
%class.BitMap = type { ptr, i64 }
%class.ValueMapEntry = type { i64, ptr, i32, ptr }
%class.Instruction = type { ptr, i32, i32, i32, ptr, ptr, ptr, %class.LIR_Opr, i32, ptr, ptr, ptr, ptr }
%class.LIR_Opr = type { i64 }
%class.ValueType = type { ptr, i32, i32 }

; Function Attrs: mustprogress nounwind uwtable
define linkonce_odr hidden noundef i64 @_ZN6BitMap23raw_to_words_align_downEm(i64 noundef %0) #1 comdat align 2 {
  %2 = alloca i64, align 8
  store i64 %0, ptr %2, align 8
  %3 = load i64, ptr %2, align 8
  %4 = lshr i64 %3, 6
  ret i64 %4
}

; Function Attrs: mustprogress nounwind uwtable
define linkonce_odr hidden void @_ZNK6BitMap12verify_limitEm(ptr noundef nonnull align 8 dereferenceable(16) %0, i64 noundef %1) #1 comdat align 2 {
  %3 = alloca ptr, align 8
  %4 = alloca i64, align 8
  store ptr %0, ptr %3, align 8
  store i64 %1, ptr %4, align 8
  ret void
}

; Function Attrs: mustprogress nounwind uwtable
define linkonce_odr hidden noundef i64 @_ZNK6BitMap19to_words_align_downEm(ptr noundef nonnull align 8 dereferenceable(16) %0, i64 noundef %1) #1 comdat align 2 {
  %3 = alloca ptr, align 8
  %4 = alloca i64, align 8
  store ptr %0, ptr %3, align 8
  store i64 %1, ptr %4, align 8
  %5 = load ptr, ptr %3, align 8
  %6 = load i64, ptr %4, align 8
  call void @_ZNK6BitMap12verify_limitEm(ptr noundef nonnull align 8 dereferenceable(16) %5, i64 noundef %6)
  %7 = load i64, ptr %4, align 8
  %8 = call noundef i64 @_ZN6BitMap23raw_to_words_align_downEm(i64 noundef %7)
  ret i64 %8
}

; Function Attrs: mustprogress nounwind uwtable
define linkonce_odr hidden noundef ptr @_ZN6BitMap3mapEv(ptr noundef nonnull align 8 dereferenceable(16) %0) #1 comdat align 2 {
  %2 = alloca ptr, align 8
  store ptr %0, ptr %2, align 8
  %3 = load ptr, ptr %2, align 8
  %4 = getelementptr inbounds %class.BitMap, ptr %3, i32 0, i32 0
  %5 = load ptr, ptr %4, align 8
  ret ptr %5
}

; Function Attrs: mustprogress nounwind uwtable
define linkonce_odr hidden noundef i64 @_ZN6BitMap11bit_in_wordEm(i64 noundef %0) #1 comdat align 2 {
  %2 = alloca i64, align 8
  store i64 %0, ptr %2, align 8
  %3 = load i64, ptr %2, align 8
  %4 = and i64 %3, 63
  ret i64 %4
}

; Function Attrs: mustprogress nounwind uwtable
define linkonce_odr hidden noundef ptr @_ZN6BitMap9word_addrEm(ptr noundef nonnull align 8 dereferenceable(16) %0, i64 noundef %1) #1 comdat align 2 {
  %3 = alloca ptr, align 8
  %4 = alloca i64, align 8
  store ptr %0, ptr %3, align 8
  store i64 %1, ptr %4, align 8
  %5 = load ptr, ptr %3, align 8
  %6 = call noundef ptr @_ZN6BitMap3mapEv(ptr noundef nonnull align 8 dereferenceable(16) %5)
  %7 = load i64, ptr %4, align 8
  %8 = call noundef i64 @_ZNK6BitMap19to_words_align_downEm(ptr noundef nonnull align 8 dereferenceable(16) %5, i64 noundef %7)
  %9 = getelementptr inbounds i64, ptr %6, i64 %8
  ret ptr %9
}

; Function Attrs: mustprogress nounwind uwtable
define linkonce_odr hidden noundef i64 @_ZN6BitMap8bit_maskEm(i64 noundef %0) #1 comdat align 2 {
  %2 = alloca i64, align 8
  store i64 %0, ptr %2, align 8
  %3 = load i64, ptr %2, align 8
  %4 = call noundef i64 @_ZN6BitMap11bit_in_wordEm(i64 noundef %3)
  %5 = shl i64 1, %4
  ret i64 %5
}

; Function Attrs: mustprogress nounwind uwtable
define linkonce_odr hidden void @_ZNK6BitMap12verify_indexEm(ptr noundef nonnull align 8 dereferenceable(16) %0, i64 noundef %1) #1 comdat align 2 {
  %3 = alloca ptr, align 8
  %4 = alloca i64, align 8
  store ptr %0, ptr %3, align 8
  store i64 %1, ptr %4, align 8
  ret void
}

; Function Attrs: mustprogress nounwind uwtable
define linkonce_odr hidden void @_ZN6BitMap7set_bitEm(ptr noundef nonnull align 8 dereferenceable(16) %0, i64 noundef %1) #1 comdat align 2 {
  %3 = alloca ptr, align 8
  %4 = alloca i64, align 8
  store ptr %0, ptr %3, align 8
  store i64 %1, ptr %4, align 8
  %5 = load ptr, ptr %3, align 8
  %6 = load i64, ptr %4, align 8
  call void @_ZNK6BitMap12verify_indexEm(ptr noundef nonnull align 8 dereferenceable(16) %5, i64 noundef %6)
  %7 = load i64, ptr %4, align 8
  %8 = call noundef i64 @_ZN6BitMap8bit_maskEm(i64 noundef %7)
  %9 = load i64, ptr %4, align 8
  %10 = call noundef ptr @_ZN6BitMap9word_addrEm(ptr noundef nonnull align 8 dereferenceable(16) %5, i64 noundef %9)
  %11 = load i64, ptr %10, align 8
  %12 = or i64 %11, %8
  store i64 %12, ptr %10, align 8
  ret void
}

; Function Attrs: mustprogress nounwind uwtable
define linkonce_odr hidden noundef i32 @_ZNK11Instruction2idEv(ptr noundef nonnull align 8 dereferenceable(96) %0) #1 comdat align 2 {
  %2 = alloca ptr, align 8
  store ptr %0, ptr %2, align 8
  %3 = load ptr, ptr %2, align 8
  %4 = getelementptr inbounds %class.Instruction, ptr %3, i32 0, i32 1
  %5 = load i32, ptr %4, align 8
  ret i32 %5
}

; Function Attrs: mustprogress nounwind uwtable
define linkonce_odr hidden void @_ZN8ValueSet3putEP11Instruction(ptr noundef nonnull align 8 dereferenceable(16) %0, ptr noundef %1) #1 comdat align 2 {
  %3 = alloca ptr, align 8
  %4 = alloca ptr, align 8
  store ptr %0, ptr %3, align 8
  store ptr %1, ptr %4, align 8
  %5 = load ptr, ptr %3, align 8
  %6 = getelementptr inbounds %class.ValueSet, ptr %5, i32 0, i32 0
  %7 = load ptr, ptr %4, align 8
  %8 = call noundef i32 @_ZNK11Instruction2idEv(ptr noundef nonnull align 8 dereferenceable(96) %7)
  %9 = sext i32 %8 to i64
  call void @_ZN6BitMap7set_bitEm(ptr noundef nonnull align 8 dereferenceable(16) %6, i64 noundef %9)
  ret void
}

; Function Attrs: mustprogress nounwind uwtable
define linkonce_odr hidden noundef zeroext i1 @_ZN8ValueMap25is_global_value_numberingEv(ptr noundef nonnull align 8 dereferenceable(52) %0) #1 comdat align 2 {
  %2 = alloca ptr, align 8
  store ptr %0, ptr %2, align 8
  %3 = load ptr, ptr %2, align 8
  %4 = getelementptr inbounds %class.ValueMap, ptr %3, i32 0, i32 0
  %5 = load i32, ptr %4, align 8
  %6 = icmp sgt i32 %5, 0
  ret i1 %6
}

; Function Attrs: mustprogress nounwind uwtable
define linkonce_odr hidden noundef nonnull align 8 dereferenceable(8) ptr @_ZN17GrowableArrayViewIP13ValueMapEntryE2atEi(ptr noundef nonnull align 8 dereferenceable(16) %0, i32 noundef %1) #1 comdat align 2 {
  %3 = alloca ptr, align 8
  %4 = alloca i32, align 4
  store ptr %0, ptr %3, align 8
  store i32 %1, ptr %4, align 4
  %5 = load ptr, ptr %3, align 8
  %6 = getelementptr inbounds %class.GrowableArrayView, ptr %5, i32 0, i32 1
  %7 = load ptr, ptr %6, align 8
  %8 = load i32, ptr %4, align 4
  %9 = sext i32 %8 to i64
  %10 = getelementptr inbounds ptr, ptr %7, i64 %9
  ret ptr %10
}

; Function Attrs: mustprogress nounwind uwtable
define linkonce_odr hidden noundef i32 @_ZNK17GrowableArrayBase6lengthEv(ptr noundef nonnull align 4 dereferenceable(8) %0) #1 comdat align 2 {
  %2 = alloca ptr, align 8
  store ptr %0, ptr %2, align 8
  %3 = load ptr, ptr %2, align 8
  %4 = getelementptr inbounds %class.GrowableArrayBase, ptr %3, i32 0, i32 0
  %5 = load i32, ptr %4, align 4
  ret i32 %5
}

; Function Attrs: mustprogress nounwind uwtable
define linkonce_odr hidden void @_ZN13ValueMapEntry8set_nextEPS_(ptr noundef nonnull align 8 dereferenceable(32) %0, ptr noundef %1) #1 comdat align 2 {
  %3 = alloca ptr, align 8
  %4 = alloca ptr, align 8
  store ptr %0, ptr %3, align 8
  store ptr %1, ptr %4, align 8
  %5 = load ptr, ptr %3, align 8
  %6 = load ptr, ptr %4, align 8
  %7 = getelementptr inbounds %class.ValueMapEntry, ptr %5, i32 0, i32 3
  store ptr %6, ptr %7, align 8
  ret void
}

; Function Attrs: mustprogress nounwind uwtable
define linkonce_odr hidden noundef i32 @_ZN8ValueMap7nestingEv(ptr noundef nonnull align 8 dereferenceable(52) %0) #1 comdat align 2 {
  %2 = alloca ptr, align 8
  store ptr %0, ptr %2, align 8
  %3 = load ptr, ptr %2, align 8
  %4 = getelementptr inbounds %class.ValueMap, ptr %3, i32 0, i32 0
  %5 = load i32, ptr %4, align 8
  ret i32 %5
}

; Function Attrs: mustprogress nounwind uwtable
define linkonce_odr hidden noundef i32 @_ZN13ValueMapEntry7nestingEv(ptr noundef nonnull align 8 dereferenceable(32) %0) #1 comdat align 2 {
  %2 = alloca ptr, align 8
  store ptr %0, ptr %2, align 8
  %3 = load ptr, ptr %2, align 8
  %4 = getelementptr inbounds %class.ValueMapEntry, ptr %3, i32 0, i32 2
  %5 = load i32, ptr %4, align 8
  ret i32 %5
}

; Function Attrs: mustprogress nounwind uwtable
define linkonce_odr hidden void @_ZN17GrowableArrayViewIP13ValueMapEntryE6at_putEiRKS1_(ptr noundef nonnull align 8 dereferenceable(16) %0, i32 noundef %1, ptr noundef nonnull align 8 dereferenceable(8) %2) #1 comdat align 2 {
  %4 = alloca ptr, align 8
  %5 = alloca i32, align 4
  %6 = alloca ptr, align 8
  store ptr %0, ptr %4, align 8
  store i32 %1, ptr %5, align 4
  store ptr %2, ptr %6, align 8
  %7 = load ptr, ptr %4, align 8
  %8 = load ptr, ptr %6, align 8
  %9 = load ptr, ptr %8, align 8
  %10 = getelementptr inbounds %class.GrowableArrayView, ptr %7, i32 0, i32 1
  %11 = load ptr, ptr %10, align 8
  %12 = load i32, ptr %5, align 4
  %13 = sext i32 %12 to i64
  %14 = getelementptr inbounds ptr, ptr %11, i64 %13
  store ptr %9, ptr %14, align 8
  ret void
}

; Function Attrs: mustprogress nounwind uwtable
define linkonce_odr hidden noundef ptr @_ZN13ValueMapEntry4nextEv(ptr noundef nonnull align 8 dereferenceable(32) %0) #1 comdat align 2 {
  %2 = alloca ptr, align 8
  store ptr %0, ptr %2, align 8
  %3 = load ptr, ptr %2, align 8
  %4 = getelementptr inbounds %class.ValueMapEntry, ptr %3, i32 0, i32 3
  %5 = load ptr, ptr %4, align 8
  ret ptr %5
}

; Function Attrs: mustprogress nounwind uwtable
define linkonce_odr hidden void @_ZN8ValueMap10kill_valueEP11Instruction(ptr noundef nonnull align 8 dereferenceable(52) %0, ptr noundef %1) #1 comdat align 2 {
  %3 = alloca ptr, align 8
  %4 = alloca ptr, align 8
  store ptr %0, ptr %3, align 8
  store ptr %1, ptr %4, align 8
  %5 = load ptr, ptr %3, align 8
  %6 = call noundef zeroext i1 @_ZN8ValueMap25is_global_value_numberingEv(ptr noundef nonnull align 8 dereferenceable(52) %5)
  br i1 %6, label %7, label %10

7:                                                ; preds = %2
  %8 = getelementptr inbounds %class.ValueMap, ptr %5, i32 0, i32 3
  %9 = load ptr, ptr %4, align 8
  call void @_ZN8ValueSet3putEP11Instruction(ptr noundef nonnull align 8 dereferenceable(16) %8, ptr noundef %9)
  br label %10

10:                                               ; preds = %7, %2
  ret void
}

; Function Attrs: mustprogress nounwind uwtable
define linkonce_odr hidden noundef i32 @_ZNK9ValueType3tagEv(ptr noundef nonnull align 8 dereferenceable(16) %0) #1 comdat align 2 {
  %2 = alloca ptr, align 8
  store ptr %0, ptr %2, align 8
  %3 = load ptr, ptr %2, align 8
  %4 = getelementptr inbounds %class.ValueType, ptr %3, i32 0, i32 2
  %5 = load i32, ptr %4, align 4
  ret i32 %5
}

; Function Attrs: mustprogress nounwind uwtable
define linkonce_odr hidden noundef ptr @_ZNK11Instruction4typeEv(ptr noundef nonnull align 8 dereferenceable(96) %0) #1 comdat align 2 {
  %2 = alloca ptr, align 8
  store ptr %0, ptr %2, align 8
  %3 = load ptr, ptr %2, align 8
  %4 = getelementptr inbounds %class.Instruction, ptr %3, i32 0, i32 4
  %5 = load ptr, ptr %4, align 8
  ret ptr %5
}

; Function Attrs: mustprogress nounwind uwtable
define linkonce_odr hidden noundef ptr @_ZN13ValueMapEntry5valueEv(ptr noundef nonnull align 8 dereferenceable(32) %0) #1 comdat align 2 {
  %2 = alloca ptr, align 8
  store ptr %0, ptr %2, align 8
  %3 = load ptr, ptr %2, align 8
  %4 = getelementptr inbounds %class.ValueMapEntry, ptr %3, i32 0, i32 1
  %5 = load ptr, ptr %4, align 8
  ret ptr %5
}

; Function Attrs: mustprogress nounwind uwtable
define linkonce_odr hidden noundef ptr @_ZN8ValueMap8entry_atEi(ptr noundef nonnull align 8 dereferenceable(52) %0, i32 noundef %1) #1 comdat align 2 {
  %3 = alloca ptr, align 8
  %4 = alloca i32, align 4
  store ptr %0, ptr %3, align 8
  store i32 %1, ptr %4, align 4
  %5 = load ptr, ptr %3, align 8
  %6 = getelementptr inbounds %class.ValueMap, ptr %5, i32 0, i32 2
  %7 = load i32, ptr %4, align 4
  %8 = call noundef nonnull align 8 dereferenceable(8) ptr @_ZN17GrowableArrayViewIP13ValueMapEntryE2atEi(ptr noundef nonnull align 8 dereferenceable(16) %6, i32 noundef %7)
  %9 = load ptr, ptr %8, align 8
  ret ptr %9
}

; Function Attrs: mustprogress nounwind uwtable
define linkonce_odr hidden noundef i32 @_ZN8ValueMap4sizeEv(ptr noundef nonnull align 8 dereferenceable(52) %0) #1 comdat align 2 {
  %2 = alloca ptr, align 8
  store ptr %0, ptr %2, align 8
  %3 = load ptr, ptr %2, align 8
  %4 = getelementptr inbounds %class.ValueMap, ptr %3, i32 0, i32 2
  %5 = call noundef i32 @_ZNK17GrowableArrayBase6lengthEv(ptr noundef nonnull align 4 dereferenceable(8) %4)
  ret i32 %5
}

; Function Attrs: mustprogress nounwind uwtable
define hidden void @_ZN8ValueMap10kill_arrayEP9ValueType(ptr noundef nonnull align 8 dereferenceable(52) %0, ptr noundef %1) #1 align 2 {
  %3 = alloca ptr, align 8
  %4 = alloca ptr, align 8
  %5 = alloca i32, align 4
  %6 = alloca ptr, align 8
  %7 = alloca ptr, align 8
  %8 = alloca ptr, align 8
  %9 = alloca i8, align 1
  %10 = alloca ptr, align 8
  store ptr %0, ptr %3, align 8
  store ptr %1, ptr %4, align 8
  %11 = load ptr, ptr %3, align 8
  %12 = call noundef i32 @_ZN8ValueMap4sizeEv(ptr noundef nonnull align 8 dereferenceable(52) %11)
  %13 = sub nsw i32 %12, 1
  store i32 %13, ptr %5, align 4
  br label %14

14:                                               ; preds = %79, %2
  %15 = load i32, ptr %5, align 4
  %16 = icmp sge i32 %15, 0
  br i1 %16, label %17, label %82

17:                                               ; preds = %14
  store ptr null, ptr %6, align 8
  %18 = load i32, ptr %5, align 4
  %19 = call noundef ptr @_ZN8ValueMap8entry_atEi(ptr noundef nonnull align 8 dereferenceable(52) %11, i32 noundef %18)
  store ptr %19, ptr %7, align 8
  br label %20

20:                                               ; preds = %75, %17
  %21 = load ptr, ptr %7, align 8
  %22 = icmp ne ptr %21, null
  br i1 %22, label %23, label %78

23:                                               ; preds = %20
  %24 = load ptr, ptr %7, align 8
  %25 = call noundef ptr @_ZN13ValueMapEntry5valueEv(ptr noundef nonnull align 8 dereferenceable(32) %24)
  store ptr %25, ptr %8, align 8
  %26 = load ptr, ptr %8, align 8
  %27 = load ptr, ptr %26, align 8
  %28 = getelementptr inbounds ptr, ptr %27, i64 11
  %29 = load ptr, ptr %28, align 8
  %30 = call noundef ptr %29(ptr noundef nonnull align 8 dereferenceable(96) %26)
  %31 = icmp ne ptr %30, null
  br i1 %31, label %32, label %39

32:                                               ; preds = %23
  %33 = load ptr, ptr %8, align 8
  %34 = call noundef ptr @_ZNK11Instruction4typeEv(ptr noundef nonnull align 8 dereferenceable(96) %33)
  %35 = call noundef i32 @_ZNK9ValueType3tagEv(ptr noundef nonnull align 8 dereferenceable(16) %34)
  %36 = load ptr, ptr %4, align 8
  %37 = call noundef i32 @_ZNK9ValueType3tagEv(ptr noundef nonnull align 8 dereferenceable(16) %36)
  %38 = icmp eq i32 %35, %37
  br label %39

39:                                               ; preds = %32, %23
  %40 = phi i1 [ false, %23 ], [ %38, %32 ]
  %41 = zext i1 %40 to i8
  store i8 %41, ptr %9, align 1
  %42 = load i8, ptr %9, align 1
  %43 = trunc i8 %42 to i1
  br i1 %43, label %44, label %72

44:                                               ; preds = %39
  %45 = load ptr, ptr %8, align 8
  call void @_ZN8ValueMap10kill_valueEP11Instruction(ptr noundef nonnull align 8 dereferenceable(52) %11, ptr noundef %45)
  %46 = load ptr, ptr %6, align 8
  %47 = icmp eq ptr %46, null
  br i1 %47, label %48, label %56

48:                                               ; preds = %44
  %49 = getelementptr inbounds %class.ValueMap, ptr %11, i32 0, i32 2
  %50 = load i32, ptr %5, align 4
  %51 = load ptr, ptr %7, align 8
  %52 = call noundef ptr @_ZN13ValueMapEntry4nextEv(ptr noundef nonnull align 8 dereferenceable(32) %51)
  store ptr %52, ptr %10, align 8
  call void @_ZN17GrowableArrayViewIP13ValueMapEntryE6at_putEiRKS1_(ptr noundef nonnull align 8 dereferenceable(16) %49, i32 noundef %50, ptr noundef nonnull align 8 dereferenceable(8) %10)
  %53 = getelementptr inbounds %class.ValueMap, ptr %11, i32 0, i32 4
  %54 = load i32, ptr %53, align 8
  %55 = add nsw i32 %54, -1
  store i32 %55, ptr %53, align 8
  br label %71

56:                                               ; preds = %44
  %57 = load ptr, ptr %6, align 8
  %58 = call noundef i32 @_ZN13ValueMapEntry7nestingEv(ptr noundef nonnull align 8 dereferenceable(32) %57)
  %59 = call noundef i32 @_ZN8ValueMap7nestingEv(ptr noundef nonnull align 8 dereferenceable(52) %11)
  %60 = icmp eq i32 %58, %59
  br i1 %60, label %61, label %68

61:                                               ; preds = %56
  %62 = load ptr, ptr %6, align 8
  %63 = load ptr, ptr %7, align 8
  %64 = call noundef ptr @_ZN13ValueMapEntry4nextEv(ptr noundef nonnull align 8 dereferenceable(32) %63)
  call void @_ZN13ValueMapEntry8set_nextEPS_(ptr noundef nonnull align 8 dereferenceable(32) %62, ptr noundef %64)
  %65 = getelementptr inbounds %class.ValueMap, ptr %11, i32 0, i32 4
  %66 = load i32, ptr %65, align 8
  %67 = add nsw i32 %66, -1
  store i32 %67, ptr %65, align 8
  br label %70

68:                                               ; preds = %56
  %69 = load ptr, ptr %7, align 8
  store ptr %69, ptr %6, align 8
  br label %70

70:                                               ; preds = %68, %61
  br label %71

71:                                               ; preds = %70, %48
  br label %74

72:                                               ; preds = %39
  %73 = load ptr, ptr %7, align 8
  store ptr %73, ptr %6, align 8
  br label %74

74:                                               ; preds = %72, %71
  br label %75

75:                                               ; preds = %74
  %76 = load ptr, ptr %7, align 8
  %77 = call noundef ptr @_ZN13ValueMapEntry4nextEv(ptr noundef nonnull align 8 dereferenceable(32) %76)
  store ptr %77, ptr %7, align 8
  br label %20, !llvm.loop !14

78:                                               ; preds = %20
  br label %79

79:                                               ; preds = %78
  %80 = load i32, ptr %5, align 4
  %81 = add nsw i32 %80, -1
  store i32 %81, ptr %5, align 4
  br label %14, !llvm.loop !15

82:                                               ; preds = %14
  ret void
}