; Function Attrs: mustprogress nounwind uwtable
define hidden void @_ZN8ValueMap10kill_arrayEP9ValueType(ptr nocapture noundef nonnull align 8 dereferenceable(52) %0, ptr nocapture noundef readonly %1) local_unnamed_addr #0 align 2 {
  %3 = getelementptr inbounds i8, ptr %0, i64 8
  %4 = load i32, ptr %3, align 8
  %5 = icmp sgt i32 %4, 0
  br i1 %5, label %.lr.ph28, label %._crit_edge

.lr.ph28:                                         ; preds = %2
  %6 = getelementptr inbounds i8, ptr %0, i64 16
  %7 = getelementptr inbounds i8, ptr %1, i64 12
  %8 = getelementptr inbounds i8, ptr %0, i64 32
  %9 = getelementptr inbounds i8, ptr %0, i64 48
  %10 = zext nneg i32 %4 to i64
  br label %12

.loopexit:                                        ; preds = %.critedge, %12
  %11 = icmp sgt i64 %indvars.iv, 1
  br i1 %11, label %12, label %._crit_edge, !llvm.loop !15

12:                                               ; preds = %.lr.ph28, %.loopexit
  %indvars.iv = phi i64 [ %10, %.lr.ph28 ], [ %indvars.iv.next, %.loopexit ]
  %indvars.iv.next = add nsw i64 %indvars.iv, -1
  %13 = load ptr, ptr %6, align 8
  %14 = getelementptr inbounds ptr, ptr %13, i64 %indvars.iv.next
  %.02022 = load ptr, ptr %14, align 8
  %.not23 = icmp eq ptr %.02022, null
  br i1 %.not23, label %.loopexit, label %.lr.ph

.lr.ph:                                           ; preds = %12, %.critedge
  %.02025 = phi ptr [ %.020, %.critedge ], [ %.02022, %12 ]
  %.01924 = phi ptr [ %.1, %.critedge ], [ null, %12 ]
  %15 = getelementptr inbounds i8, ptr %.02025, i64 8
  %16 = load ptr, ptr %15, align 8
  %17 = load ptr, ptr %16, align 8
  %18 = getelementptr inbounds i8, ptr %17, i64 88
  %19 = load ptr, ptr %18, align 8
  %20 = tail call noundef ptr %19(ptr noundef nonnull align 8 dereferenceable(96) %16) #6
  %.not21 = icmp eq ptr %20, null
  br i1 %.not21, label %.critedge, label %21

21:                                               ; preds = %.lr.ph
  %22 = getelementptr inbounds i8, ptr %16, i64 24
  %23 = load ptr, ptr %22, align 8
  %24 = getelementptr inbounds i8, ptr %23, i64 12
  %25 = load i32, ptr %24, align 4
  %26 = load i32, ptr %7, align 4
  %27 = icmp eq i32 %25, %26
  br i1 %27, label %28, label %.critedge

28:                                               ; preds = %21
  %29 = load i32, ptr %0, align 8
  %30 = icmp sgt i32 %29, 0
  br i1 %30, label %31, label %_ZN8ValueMap10kill_valueEP11Instruction.exit

31:                                               ; preds = %28
  %32 = getelementptr inbounds i8, ptr %16, i64 8
  %33 = load i32, ptr %32, align 8
  %34 = sext i32 %33 to i64
  %35 = and i64 %34, 63
  %36 = shl nuw i64 1, %35
  %37 = load ptr, ptr %8, align 8
  %38 = lshr i64 %34, 6
  %39 = getelementptr inbounds i64, ptr %37, i64 %38
  %40 = load i64, ptr %39, align 8
  %41 = or i64 %36, %40
  store i64 %41, ptr %39, align 8
  br label %_ZN8ValueMap10kill_valueEP11Instruction.exit

_ZN8ValueMap10kill_valueEP11Instruction.exit:     ; preds = %28, %31
  %42 = icmp eq ptr %.01924, null
  br i1 %42, label %43, label %48

43:                                               ; preds = %_ZN8ValueMap10kill_valueEP11Instruction.exit
  %44 = getelementptr inbounds i8, ptr %.02025, i64 24
  %45 = load ptr, ptr %44, align 8
  %46 = load ptr, ptr %6, align 8
  %47 = getelementptr inbounds ptr, ptr %46, i64 %indvars.iv.next
  store ptr %45, ptr %47, align 8
  br label %.critedge.sink.split

48:                                               ; preds = %_ZN8ValueMap10kill_valueEP11Instruction.exit
  %49 = getelementptr inbounds i8, ptr %.01924, i64 16
  %50 = load i32, ptr %49, align 8
  %51 = load i32, ptr %0, align 8
  %52 = icmp eq i32 %50, %51
  br i1 %52, label %53, label %.critedge

53:                                               ; preds = %48
  %54 = getelementptr inbounds i8, ptr %.02025, i64 24
  %55 = load ptr, ptr %54, align 8
  %56 = getelementptr inbounds i8, ptr %.01924, i64 24
  store ptr %55, ptr %56, align 8
  br label %.critedge.sink.split

.critedge.sink.split:                             ; preds = %43, %53
  %.1.ph = phi ptr [ %.01924, %53 ], [ null, %43 ]
  %57 = load i32, ptr %9, align 8
  %58 = add nsw i32 %57, -1
  store i32 %58, ptr %9, align 8
  br label %.critedge

.critedge:                                        ; preds = %.critedge.sink.split, %21, %.lr.ph, %48
  %.1 = phi ptr [ %.02025, %48 ], [ %.02025, %.lr.ph ], [ %.02025, %21 ], [ %.1.ph, %.critedge.sink.split ]
  %59 = getelementptr inbounds i8, ptr %.02025, i64 24
  %.020 = load ptr, ptr %59, align 8
  %.not = icmp eq ptr %.020, null
  br i1 %.not, label %.loopexit, label %.lr.ph, !llvm.loop !16

._crit_edge:                                      ; preds = %.loopexit, %2
  ret void
}